(lp0
(lp1
a(lp2
(lp3
(I291
I101
tp4
a(I496
I301
tp5
aaI1
aa(lp6
(lp7
(I114
I513
tp8
a(I222
I583
tp9
aaI1
aa(lp10
(lp11
(I667
I278
tp12
a(I724
I340
tp13
aaI2
aa(lp14
(lp15
(I451
I415
tp16
a(I516
I454
tp17
aaI2
aa(lp18
(lp19
(I289
I135
tp20
a(I326
I156
tp21
aaI3
aa(lp22
(lp23
(I165
I292
tp24
a(I199
I324
tp25
aaI3
aa(lp26
(lp27
(I150
I454
tp28
a(I190
I495
tp29
aaI3
aa(lp30
(lp31
(I447
I443
tp32
a(I498
I491
tp33
aaI3
aa(lp34
(lp35
(I404
I175
tp36
a(I429
I196
tp37
aaI4
aa(lp38
(lp39
(I454
I299
tp40
a(I477
I325
tp41
aaI4
aa(lp42
(lp43
(I545
I254
tp44
a(I576
I280
tp45
aaI4
aa(lp46
(lp47
(I586
I445
tp48
a(I621
I465
tp49
aaI4
aa(lp50
(lp51
(I510
I484
tp52
a(I513
I505
tp53
aaI4
aa(lp54
(lp55
(I292
I365
tp56
a(I300
I368
tp57
aaI4
aa(lp58
(lp59
(I193
I277
tp60
a(I227
I290
tp61
aaI4
aa(lp62
(lp63
(I256
I150
tp64
a(I274
I155
tp65
aaI4
aa(lp66
(lp67
(I484
I66
tp68
a(I515
I94
tp69
aaI4
aa(lp70
(lp71
(I474
I117
tp72
a(I512
I151
tp73
aaI5
aa(lp74
(lp75
(I195
I172
tp76
a(I233
I222
tp77
aaI5
aa(lp78
(lp79
(I329
I410
tp80
a(I375
I475
tp81
aaI5
aa(lp82
(lp83
(I634
I391
tp84
a(I683
I455
tp85
aaI5
aa(lp86
(lp87
(I631
I275
tp88
a(I666
I303
tp89
aaI6
aa(lp90
(lp91
(I173
I245
tp92
a(I209
I293
tp93
aaI6
aa(lp94
(lp95
(I386
I454
tp96
a(I465
I548
tp97
aaI6
aa(lp98
(lp99
(I280
I222
tp100
a(I316
I268
tp101
aaI7
aa(lp102
(lp103
(I319
I356
tp104
a(I357
I400
tp105
aaI7
aa(lp106
(lp107
(I525
I249
tp108
a(I546
I263
tp109
aaI7
aa(lp110
(lp111
(I580
I428
tp112
a(I593
I450
tp113
aaI7
aa(lp114
(lp115
(I194
I527
tp116
a(I162
I459
tp117
aaI7
aa(lp118
(lp119
(I77
I257
tp120
a(I111
I287
tp121
aaI8
aa(lp122
(lp123
(I361
I124
tp124
a(I408
I165
tp125
aaI8
aa(lp126
(lp127
(I560
I108
tp128
a(I620
I164
tp129
aaI8
aa(lp130
(lp131
(I483
I319
tp132
a(I531
I394
tp133
aaI8
aa(lp134
(lp135
(I200
I154
tp136
a(I345
I496
tp137
aaI9
aa(lp138
(lp139
(I200
I155
tp140
a(I504
I820
tp141
aaI10
aa(lp142
(lp143
(I579
I160
tp144
a(I692
I654
tp145
aaI11
aa(lp146
(lp147
(I925
I97
tp148
a(I753
I690
tp149
aaI11
aa(lp150
(lp151
(I431
I294
tp152
a(I531
I598
tp153
aaI11
aa(lp154
(lp155
(I236
I136
tp156
a(I351
I536
tp157
aaI11
aa(lp158
(lp159
(I273
I268
tp160
a(I587
I791
tp161
aaI12
aa(lp162
(lp163
(I224
I179
tp164
a(I553
I744
tp165
aaI13
aa(lp166
(lp167
(I324
I260
tp168
a(I554
I688
tp169
aaI14
aa(lp170
(lp171
(I186
I267
tp172
a(I399
I662
tp173
aaI15
aa(lp174
(lp175
(I280
I248
tp176
a(I455
I623
tp177
aaI16
aa(lp178
(lp179
(I227
I231
tp180
a(I449
I801
tp181
aaI17
aa(lp182
(lp183
(I299
I193
tp184
a(I439
I430
tp185
aaI18
aa(lp186
(lp187
(I136
I41
tp188
a(I531
I881
tp189
aaI19
aa(lp190
(lp191
(I212
I221
tp192
a(I533
I931
tp193
aaI20
aa(lp194
(lp195
(I346
I66
tp196
a(I717
I774
tp197
aaI21
aa(lp198
(lp199
(I232
I248
tp200
a(I548
I741
tp201
aaI22
aa(lp202
(lp203
(I240
I226
tp204
a(I560
I679
tp205
aaI23
aa(lp206
(lp207
(I611
I212
tp208
a(I874
I693
tp209
aaI23
aa(lp210
(lp211
(I1001
I328
tp212
a(I1060
I551
tp213
aaI23
aa(lp214
(lp215
(I336
I311
tp216
a(I535
I715
tp217
aaI24
aa(lp218
(lp219
(I337
I263
tp220
a(I541
I612
tp221
aaI25
aa(lp222
(lp223
(I326
I265
tp224
a(I427
I432
tp225
aaI26
aa(lp226
(lp227
(I483
I268
tp228
a(I608
I495
tp229
aaI26
aa(lp230
(lp231
(I644
I336
tp232
a(I723
I429
tp233
aaI26
aa(lp234
(lp235
(I297
I218
tp236
a(I522
I429
tp237
aaI27
aa(lp238
(lp239
(I143
I580
tp240
a(I274
I766
tp241
aaI27
aa(lp242
(lp243
(I594
I609
tp244
a(I718
I817
tp245
aaI27
aa(lp246
(lp247
(I328
I272
tp248
a(I451
I503
tp249
aaI28
aa(lp250
(lp251
(I703
I150
tp252
a(I805
I619
tp253
aaI28
aa(lp254
(lp255
(I263
I256
tp256
a(I482
I666
tp257
aaI29
aa(lp258
(lp259
(I212
I191
tp260
a(I529
I811
tp261
aaI30
aa(lp262
(lp263
(I537
I251
tp264
a(I852
I761
tp265
aaI30
aa(lp266
(lp267
(I293
I218
tp268
a(I489
I603
tp269
aaI31
aa(lp270
(lp271
(I175
I633
tp272
a(I343
I828
tp273
aaI31
aa(lp274
(lp275
(I691
I718
tp276
a(I820
I900
tp277
aaI31
aa(lp278
(lp279
(I360
I214
tp280
a(I517
I496
tp281
aaI32
aa(lp282
(lp283
(I303
I229
tp284
a(I584
I686
tp285
aaI33
aa(lp286
(lp287
(I317
I254
tp288
a(I546
I570
tp289
aaI34
aa(lp290
(lp291
(I167
I197
tp292
a(I442
I547
tp293
aaI35
aa(lp294
(lp295
(I207
I216
tp296
a(I470
I565
tp297
aaI36
aa(lp298
(lp299
(I259
I186
tp300
a(I458
I529
tp301
aaI37
aa(lp302
(lp303
(I637
I309
tp304
a(I808
I692
tp305
aaI38
aa(lp306
(lp307
(I409
I399
tp308
a(I577
I694
tp309
aaI38
aa(lp310
(lp311
(I382
I366
tp312
a(I288
I634
tp313
aaI38
aa(lp314
(lp315
(I179
I331
tp316
a(I273
I558
tp317
aaI38
aa(lp318
(lp319
(I287
I290
tp320
a(I395
I677
tp321
aaI39
aa(lp322
(lp323
(I453
I290
tp324
a(I607
I699
tp325
aaI39
aa(lp326
(lp327
(I206
I175
tp328
a(I412
I518
tp329
aaI40
aa(lp330
(lp331
(I239
I178
tp332
a(I326
I317
tp333
aaI41
aa(lp334
(lp335
(I406
I234
tp336
a(I496
I394
tp337
aaI41
aa(lp338
(lp339
(I573
I262
tp340
a(I659
I469
tp341
aaI41
aa(lp342
(lp343
(I60
I197
tp344
a(I147
I470
tp345
aaI41
aa(lp346
(lp347
(I166
I181
tp348
a(I302
I419
tp349
aaI42
aa(lp350
(lp351
(I167
I97
tp352
a(I292
I364
tp353
aaI43
aa(lp354
(lp355
(I144
I164
tp356
a(I250
I331
tp357
aaI44
aa(lp358
(lp359
(I261
I378
tp360
a(I378
I538
tp361
aaI44
aa(lp362
(lp363
(I206
I118
tp364
a(I261
I189
tp365
aaI45
aa(lp366
(lp367
(I63
I103
tp368
a(I127
I174
tp369
aaI45
aa(lp370
(lp371
(I127
I174
tp372
a(I128
I175
tp373
aaI45
aa(lp374
(lp375
(I147
I265
tp376
a(I237
I338
tp377
aaI45
aa(lp378
(lp379
(I219
I173
tp380
a(I282
I236
tp381
aaI46
aa(lp382
(lp383
(I71
I288
tp384
a(I135
I339
tp385
aaI46
aa(lp386
(lp387
(I19
I411
tp388
a(I82
I456
tp389
aaI46
aa(lp390
(lp391
(I217
I446
tp392
a(I350
I531
tp393
aaI46
aa(lp394
(lp395
(I230
I167
tp396
a(I321
I248
tp397
aaI47
aa(lp398
(lp399
(I92
I131
tp400
a(I148
I213
tp401
aaI47
aa(lp402
(lp403
(I196
I370
tp404
a(I283
I438
tp405
aaI47
aa(lp406
(lp407
(I443
I58
tp408
a(I560
I185
tp409
aaI47
aa(lp410
(lp411
(I206
I88
tp412
a(I286
I175
tp413
aaI48
aa(lp414
(lp415
(I120
I145
tp416
a(I181
I198
tp417
aaI48
aa(lp418
(lp419
(I260
I316
tp420
a(I312
I367
tp421
aaI49
aa(lp422
(lp423
(I475
I293
tp424
a(I548
I363
tp425
aaI49
aa(lp426
(lp427
(I57
I378
tp428
a(I130
I439
tp429
aaI49
aa(lp430
(lp431
(I339
I685
tp432
a(I393
I751
tp433
aaI49
aa(lp434
(lp435
(I283
I272
tp436
a(I335
I328
tp437
aaI50
aa(lp438
(lp439
(I18
I274
tp440
a(I107
I358
tp441
aaI50
aa(lp442
(lp443
(I185
I175
tp444
a(I258
I230
tp445
aaI51
aa(lp446
(lp447
(I74
I222
tp448
a(I113
I270
tp449
aaI51
aa(lp450
(lp451
(I333
I189
tp452
a(I414
I284
tp453
aaI53
aa(lp454
(lp455
(I210
I313
tp456
a(I272
I379
tp457
aaI53
aa.