(lp0
(lp1
a(lp2
(lp3
(I290
I110
tp4
a(I493
I732
tp5
aaI1
aa(lp6
(lp7
(I42
I311
tp8
a(I235
I735
tp9
aaI1
aa(lp10
(lp11
(I64
I103
tp12
a(I254
I277
tp13
aaI1
aa(lp14
(lp15
(I114
I85
tp16
a(I297
I648
tp17
aaI2
aa(lp18
(lp19
(I390
I138
tp20
a(I963
I900
tp21
aaI2
aa(lp22
(lp23
(I252
I22
tp24
a(I487
I399
tp25
aaI3
aa(lp26
(lp27
(I288
I62
tp28
a(I467
I339
tp29
aaI4
aa(lp30
(lp31
(I299
I35
tp32
a(I481
I308
tp33
aaI5
aa(lp34
(lp35
(I220
I40
tp36
a(I417
I277
tp37
aaI6
aa(lp38
(lp39
(I395
I207
tp40
a(I395
I207
tp41
aaI6
aa(lp42
(lp43
(I293
I104
tp44
a(I402
I281
tp45
aaI7
aa.